(dp0
S'right'
p1
S'direction'
p2
sS'dollar'
p3
S'money'
p4
sS'meter'
p5
S'distance'
p6
sS'down'
p7
g2
sS'pound'
p8
g4
sS'kill'
p9
S'verb'
p10
sS'in'
p11
S'stop'
p12
sS'go'
p13
g10
sS'door'
p14
S'noun'
p15
sS'west'
p16
g2
sS'eat'
p17
g10
sS'east'
p18
g2
sS'north'
p19
g2
sS'bear'
p20
g15
sS'kronor'
p21
g4
sS'princess'
p22
g15
sS'of'
p23
g12
sS'up'
p24
g2
sS'km'
p25
g6
sS'miles'
p26
g6
sS'the'
p27
g12
sS'south'
p28
g2
sS'left'
p29
g2
s.